target datalayout = "e-m:e-p270:32:32-p271:32:32-p272:64:64-i64:64-i128:128-f80:128-n8:16:32:64-S128"
target triple = "x86_64-pc-linux-gnu"

%struct.BuildTarget = type { i32, ptr, ptr, ptr, ptr, ptr, ptr, ptr, ptr, ptr, ptr, ptr, ptr, ptr, ptr, ptr, ptr, ptr, ptr, i8, i8, i8, i8, i8, i8, i8, i8, i8, i8, i8, i8, i8, i8, i8, i8, i8, i8, i8, i8, i32, i32, i32, i32, i32, i32, i32, i32, i32, i32, i32, i32, i32, i32, i32, i32, i32, i32, ptr, ptr, ptr, ptr, ptr, ptr, ptr, ptr, ptr, ptr, %struct.anon.99, %struct.anon.100, %struct.anon.101, %struct.anon.102 }
%struct.anon.99 = type { i16, i32, i32, i32 }
%struct.anon.100 = type { ptr, ptr, ptr, ptr }
%struct.anon.101 = type { ptr, ptr, i32, i8 }
%struct.anon.102 = type { ptr, ptr }

@active_target = external global %struct.BuildTarget, align 8
@.str.7 = private unnamed_addr constant [6 x i8] c"%s.ll\00", align 1
@.str.8 = private unnamed_addr constant [6 x i8] c"%s.ir\00", align 1
@.str.9 = private unnamed_addr constant [5 x i8] c"%s%s\00", align 1
@.str.10 = private unnamed_addr constant [5 x i8] c"%s.s\00", align 1

; Function Attrs: nounwind uwtable
define dso_local void @codegen_setup_object_names(ptr noundef %0, ptr noundef %1, ptr noundef %2, ptr noundef %3) #0 {
  %5 = alloca ptr, align 8
  %6 = alloca ptr, align 8
  %7 = alloca ptr, align 8
  %8 = alloca ptr, align 8
  %9 = alloca ptr, align 8
  store ptr %0, ptr %5, align 8
  store ptr %1, ptr %6, align 8
  store ptr %2, ptr %7, align 8
  store ptr %3, ptr %8, align 8
  %10 = load ptr, ptr %5, align 8
  %11 = call ptr @module_create_object_file_name(ptr noundef %10)
  store ptr %11, ptr %9, align 8
  %12 = load i32, ptr getelementptr inbounds (%struct.BuildTarget, ptr @active_target, i32 0, i32 53), align 4
  %13 = icmp eq i32 %12, 1
  %14 = select i1 %13, ptr @.str.7, ptr @.str.8
  %15 = load ptr, ptr %9, align 8
  %16 = call ptr (ptr, ...) @str_printf(ptr noundef %14, ptr noundef %15)
  %17 = load ptr, ptr %6, align 8
  store ptr %16, ptr %17, align 8
  %18 = load ptr, ptr getelementptr inbounds (%struct.BuildTarget, ptr @active_target, i32 0, i32 16), align 8
  %19 = icmp ne ptr %18, null
  br i1 %19, label %20, label %26

20:                                               ; preds = %4
  %21 = load ptr, ptr getelementptr inbounds (%struct.BuildTarget, ptr @active_target, i32 0, i32 16), align 8
  %22 = load ptr, ptr %6, align 8
  %23 = load ptr, ptr %22, align 8
  %24 = call ptr @file_append_path(ptr noundef %21, ptr noundef %23)
  %25 = load ptr, ptr %6, align 8
  store ptr %24, ptr %25, align 8
  br label %26

26:                                               ; preds = %20, %4
  %27 = load ptr, ptr %9, align 8
  %28 = call ptr @get_object_extension()
  %29 = call ptr (ptr, ...) @str_printf(ptr noundef @.str.9, ptr noundef %27, ptr noundef %28)
  %30 = load ptr, ptr %8, align 8
  store ptr %29, ptr %30, align 8
  %31 = load i8, ptr getelementptr inbounds (%struct.BuildTarget, ptr @active_target, i32 0, i32 30), align 1
  %32 = trunc i8 %31 to i1
  br i1 %32, label %33, label %46

33:                                               ; preds = %26
  %34 = load ptr, ptr %9, align 8
  %35 = call ptr (ptr, ...) @str_printf(ptr noundef @.str.10, ptr noundef %34)
  %36 = load ptr, ptr %7, align 8
  store ptr %35, ptr %36, align 8
  %37 = load ptr, ptr getelementptr inbounds (%struct.BuildTarget, ptr @active_target, i32 0, i32 17), align 8
  %38 = icmp ne ptr %37, null
  br i1 %38, label %39, label %45

39:                                               ; preds = %33
  %40 = load ptr, ptr getelementptr inbounds (%struct.BuildTarget, ptr @active_target, i32 0, i32 17), align 8
  %41 = load ptr, ptr %7, align 8
  %42 = load ptr, ptr %41, align 8
  %43 = call ptr @file_append_path(ptr noundef %40, ptr noundef %42)
  %44 = load ptr, ptr %7, align 8
  store ptr %43, ptr %44, align 8
  br label %45

45:                                               ; preds = %39, %33
  br label %46

46:                                               ; preds = %45, %26
  %47 = load ptr, ptr getelementptr inbounds (%struct.BuildTarget, ptr @active_target, i32 0, i32 14), align 8
  %48 = icmp ne ptr %47, null
  br i1 %48, label %49, label %55

49:                                               ; preds = %46
  %50 = load ptr, ptr getelementptr inbounds (%struct.BuildTarget, ptr @active_target, i32 0, i32 14), align 8
  %51 = load ptr, ptr %8, align 8
  %52 = load ptr, ptr %51, align 8
  %53 = call ptr @file_append_path(ptr noundef %50, ptr noundef %52)
  %54 = load ptr, ptr %8, align 8
  store ptr %53, ptr %54, align 8
  br label %55

55:                                               ; preds = %49, %46
  ret void
}