; Function Attrs: nounwind uwtable
define dso_local void @codegen_setup_object_names(ptr noundef %0, ptr nocapture noundef writeonly %1, ptr nocapture noundef writeonly %2, ptr nocapture noundef %3) local_unnamed_addr #0 {
  %5 = tail call ptr @module_create_object_file_name(ptr noundef %0) #4
  %6 = load i32, ptr getelementptr inbounds (%struct.BuildTarget, ptr @active_target, i64 0, i32 53), align 4
  %7 = icmp eq i32 %6, 1
  %8 = select i1 %7, ptr @.str.7, ptr @.str.8
  %9 = tail call ptr (ptr, ...) @str_printf(ptr noundef nonnull %8, ptr noundef %5) #4
  store ptr %9, ptr %1, align 8
  %10 = load ptr, ptr getelementptr inbounds (%struct.BuildTarget, ptr @active_target, i64 0, i32 16), align 8
  %.not = icmp eq ptr %10, null
  br i1 %.not, label %13, label %11

11:                                               ; preds = %4
  %12 = tail call ptr @file_append_path(ptr noundef nonnull %10, ptr noundef %9) #4
  store ptr %12, ptr %1, align 8
  br label %13

13:                                               ; preds = %11, %4
  %14 = tail call ptr @get_object_extension() #4
  %15 = tail call ptr (ptr, ...) @str_printf(ptr noundef nonnull @.str.9, ptr noundef %5, ptr noundef %14) #4
  store ptr %15, ptr %3, align 8
  %16 = load i8, ptr getelementptr inbounds (%struct.BuildTarget, ptr @active_target, i64 0, i32 30), align 1
  %17 = trunc i8 %16 to i1
  br i1 %17, label %18, label %23

18:                                               ; preds = %13
  %19 = tail call ptr (ptr, ...) @str_printf(ptr noundef nonnull @.str.10, ptr noundef %5) #4
  store ptr %19, ptr %2, align 8
  %20 = load ptr, ptr getelementptr inbounds (%struct.BuildTarget, ptr @active_target, i64 0, i32 17), align 8
  %.not15 = icmp eq ptr %20, null
  br i1 %.not15, label %23, label %21

21:                                               ; preds = %18
  %22 = tail call ptr @file_append_path(ptr noundef nonnull %20, ptr noundef %19) #4
  store ptr %22, ptr %2, align 8
  br label %23

23:                                               ; preds = %18, %21, %13
  %24 = load ptr, ptr getelementptr inbounds (%struct.BuildTarget, ptr @active_target, i64 0, i32 14), align 8
  %.not16 = icmp eq ptr %24, null
  br i1 %.not16, label %28, label %25

25:                                               ; preds = %23
  %26 = load ptr, ptr %3, align 8
  %27 = tail call ptr @file_append_path(ptr noundef nonnull %24, ptr noundef %26) #4
  store ptr %27, ptr %3, align 8
  br label %28

28:                                               ; preds = %25, %23
  ret void
}